; Function Attrs: nounwind sspstrong uwtable
define dso_local void @tcg_gen_dup_i64(i32 noundef %0, ptr noundef %1, ptr noundef %2) local_unnamed_addr #2 {
  switch i32 %0, label %8 [
    i32 0, label %4
    i32 1, label %5
    i32 2, label %6
    i32 3, label %7
  ]

4:                                                ; preds = %3
  tail call void @tcg_gen_ext8u_i64(ptr noundef %1, ptr noundef %2) #10
  tail call void @tcg_gen_muli_i64(ptr noundef %1, ptr noundef %1, i64 noundef 72340172838076673) #10
  br label %9

5:                                                ; preds = %3
  tail call void @tcg_gen_ext16u_i64(ptr noundef %1, ptr noundef %2) #10
  tail call void @tcg_gen_muli_i64(ptr noundef %1, ptr noundef %1, i64 noundef 281479271743489) #10
  br label %9

6:                                                ; preds = %3
  tail call void @tcg_gen_deposit_i64(ptr noundef %1, ptr noundef %2, ptr noundef %2, i32 noundef 32, i32 noundef 32) #10
  br label %9

7:                                                ; preds = %3
  tail call void @tcg_gen_mov_i64(ptr noundef %1, ptr noundef %2) #10
  br label %9

8:                                                ; preds = %3
  tail call void @g_assertion_message_expr(ptr noundef null, ptr noundef nonnull @.str, i32 noundef 439, ptr noundef nonnull @__func__.tcg_gen_dup_i64, ptr noundef null) #11
  unreachable

9:                                                ; preds = %7, %6, %5, %4
  ret void
}